target datalayout = "e-m:e-p270:32:32-p271:32:32-p272:64:64-i64:64-i128:128-f80:128-n8:16:32:64-S128"
target triple = "x86_64-pc-linux-gnu"

%struct.sct_ctx_st = type { ptr, ptr, i64, ptr, i64, ptr, i64, ptr, i64, i64, ptr, ptr }

@.str = private unnamed_addr constant [34 x i8] c"../openssl/crypto/ct/ct_sct_ctx.c\00", align 1

; Function Attrs: nounwind uwtable
define ptr @SCT_CTX_new(ptr noundef %0, ptr noundef %1) #0 {
  %3 = alloca ptr, align 8
  %4 = alloca ptr, align 8
  %5 = alloca ptr, align 8
  %6 = alloca ptr, align 8
  %7 = alloca i32, align 4
  store ptr %0, ptr %4, align 8, !tbaa !3
  store ptr %1, ptr %5, align 8, !tbaa !8
  call void @llvm.lifetime.start.p0(i64 8, ptr %6) #3
  %8 = call noalias ptr @CRYPTO_zalloc(i64 noundef 96, ptr noundef @.str, i32 noundef 25)
  store ptr %8, ptr %6, align 8, !tbaa !10
  %9 = load ptr, ptr %6, align 8, !tbaa !10
  %10 = icmp eq ptr %9, null
  br i1 %10, label %11, label %12

11:                                               ; preds = %2
  store ptr null, ptr %3, align 8
  store i32 1, ptr %7, align 4
  br label %32

12:                                               ; preds = %2
  %13 = load ptr, ptr %4, align 8, !tbaa !3
  %14 = load ptr, ptr %6, align 8, !tbaa !10
  %15 = getelementptr inbounds nuw %struct.sct_ctx_st, ptr %14, i32 0, i32 10
  store ptr %13, ptr %15, align 8, !tbaa !12
  %16 = load ptr, ptr %5, align 8, !tbaa !8
  %17 = icmp ne ptr %16, null
  br i1 %17, label %18, label %30

18:                                               ; preds = %12
  %19 = load ptr, ptr %5, align 8, !tbaa !8
  %20 = call noalias ptr @CRYPTO_strdup(ptr noundef %19, ptr noundef @.str, i32 noundef 32)
  %21 = load ptr, ptr %6, align 8, !tbaa !10
  %22 = getelementptr inbounds nuw %struct.sct_ctx_st, ptr %21, i32 0, i32 11
  store ptr %20, ptr %22, align 8, !tbaa !16
  %23 = load ptr, ptr %6, align 8, !tbaa !10
  %24 = getelementptr inbounds nuw %struct.sct_ctx_st, ptr %23, i32 0, i32 11
  %25 = load ptr, ptr %24, align 8, !tbaa !16
  %26 = icmp eq ptr %25, null
  br i1 %26, label %27, label %29

27:                                               ; preds = %18
  %28 = load ptr, ptr %6, align 8, !tbaa !10
  call void @CRYPTO_free(ptr noundef %28, ptr noundef @.str, i32 noundef 34)
  store ptr null, ptr %3, align 8
  store i32 1, ptr %7, align 4
  br label %32

29:                                               ; preds = %18
  br label %30

30:                                               ; preds = %29, %12
  %31 = load ptr, ptr %6, align 8, !tbaa !10
  store ptr %31, ptr %3, align 8
  store i32 1, ptr %7, align 4
  br label %32

32:                                               ; preds = %30, %27, %11
  call void @llvm.lifetime.end.p0(i64 8, ptr %6) #3
  %33 = load ptr, ptr %3, align 8
  ret ptr %33
}