; Function Attrs: nounwind uwtable
define ptr @SCT_CTX_new(ptr noundef %0, ptr noundef %1) local_unnamed_addr #0 {
  %3 = tail call noalias ptr @CRYPTO_zalloc(i64 noundef 96, ptr noundef nonnull @.str, i32 noundef 25) #4
  %4 = icmp eq ptr %3, null
  br i1 %4, label %12, label %5

5:                                                ; preds = %2
  %6 = getelementptr inbounds nuw i8, ptr %3, i64 80
  store ptr %0, ptr %6, align 8, !tbaa !3
  %.not = icmp eq ptr %1, null
  br i1 %.not, label %12, label %7

7:                                                ; preds = %5
  %8 = tail call noalias ptr @CRYPTO_strdup(ptr noundef nonnull %1, ptr noundef nonnull @.str, i32 noundef 32) #4
  %9 = getelementptr inbounds nuw i8, ptr %3, i64 88
  store ptr %8, ptr %9, align 8, !tbaa !12
  %10 = icmp eq ptr %8, null
  br i1 %10, label %11, label %12

11:                                               ; preds = %7
  tail call void @CRYPTO_free(ptr noundef nonnull %3, ptr noundef nonnull @.str, i32 noundef 34) #4
  br label %12

12:                                               ; preds = %5, %7, %2, %11
  %.0 = phi ptr [ null, %11 ], [ null, %2 ], [ %3, %7 ], [ %3, %5 ]
  ret ptr %.0
}